target datalayout = "e-m:e-p270:32:32-p271:32:32-p272:64:64-i64:64-i128:128-f80:128-n8:16:32:64-S128"
target triple = "x86_64-pc-linux-gnu"

%struct._object = type { %union.anon, ptr }
%union.anon = type { i64 }
%struct.anon = type { i32, i32 }

@_Py_NoneStruct = external global %struct._object, align 8
@MyObject_dealloc_called = internal global i32 0, align 4
@PyExc_AssertionError = external global ptr, align 8
@.str.26 = private unnamed_addr constant [28 x i8] c"PyUnstable_TryIncRef failed\00", align 1
@.str.27 = private unnamed_addr constant [29 x i8] c"MyObject_dealloc_called == 1\00", align 1
@.str.28 = private unnamed_addr constant [38 x i8] c"../cpython/Modules/_testcapi/object.c\00", align 1
@__PRETTY_FUNCTION__.test_py_try_inc_ref = private unnamed_addr constant [54 x i8] c"PyObject *test_py_try_inc_ref(PyObject *, PyObject *)\00", align 1

; Function Attrs: alwaysinline nounwind uwtable
define internal i32 @_Py_IsImmortal(ptr noundef %0) #4 {
  %2 = alloca ptr, align 8
  store ptr %0, ptr %2, align 8, !tbaa !3
  %3 = load ptr, ptr %2, align 8, !tbaa !3
  %4 = getelementptr inbounds nuw %struct._object, ptr %3, i32 0, i32 0
  %5 = getelementptr inbounds nuw %struct.anon, ptr %4, i32 0, i32 0
  %6 = load i32, ptr %5, align 8, !tbaa !16
  %7 = icmp slt i32 %6, 0
  %8 = zext i1 %7 to i32
  ret i32 %8
}

; Function Attrs: alwaysinline nounwind uwtable
define internal void @Py_DECREF(ptr noundef %0) #4 {
  %2 = alloca ptr, align 8
  store ptr %0, ptr %2, align 8, !tbaa !3
  %3 = load ptr, ptr %2, align 8, !tbaa !3
  %4 = call i32 @_Py_IsImmortal(ptr noundef %3)
  %5 = icmp ne i32 %4, 0
  br i1 %5, label %6, label %7

6:                                                ; preds = %1
  br label %16

7:                                                ; preds = %1
  %8 = load ptr, ptr %2, align 8, !tbaa !3
  %9 = getelementptr inbounds nuw %struct._object, ptr %8, i32 0, i32 0
  %10 = getelementptr inbounds nuw %struct.anon, ptr %9, i32 0, i32 0
  %11 = load i32, ptr %10, align 8, !tbaa !16
  %12 = add i32 %11, -1
  store i32 %12, ptr %10, align 8, !tbaa !16
  %13 = icmp eq i32 %12, 0
  br i1 %13, label %14, label %16

14:                                               ; preds = %7
  %15 = load ptr, ptr %2, align 8, !tbaa !3
  call void @_Py_Dealloc(ptr noundef %15)
  br label %16

16:                                               ; preds = %6, %14, %7
  ret void
}

; Function Attrs: nounwind uwtable
define internal ptr @test_py_try_inc_ref(ptr noundef %0, ptr noundef %1) #0 {
  %3 = alloca ptr, align 8
  %4 = alloca ptr, align 8
  %5 = alloca ptr, align 8
  %6 = alloca ptr, align 8
  %7 = alloca i32, align 4
  store ptr %0, ptr %4, align 8, !tbaa !3
  store ptr %1, ptr %5, align 8, !tbaa !3
  %8 = call i32 @PyType_Ready(ptr noundef @MyType)
  %9 = icmp slt i32 %8, 0
  br i1 %9, label %10, label %11

10:                                               ; preds = %2
  store ptr null, ptr %3, align 8
  br label %34

11:                                               ; preds = %2
  store i32 0, ptr @MyObject_dealloc_called, align 4, !tbaa !8
  call void @llvm.lifetime.start.p0(i64 8, ptr %6) #6
  %12 = call ptr @_PyObject_New(ptr noundef @MyType)
  store ptr %12, ptr %6, align 8, !tbaa !3
  %13 = load ptr, ptr %6, align 8, !tbaa !3
  %14 = icmp eq ptr %13, null
  br i1 %14, label %15, label %16

15:                                               ; preds = %11
  store ptr null, ptr %3, align 8
  store i32 1, ptr %7, align 4
  br label %33

16:                                               ; preds = %11
  %17 = load ptr, ptr %6, align 8, !tbaa !3
  call void @PyUnstable_EnableTryIncRef(ptr noundef %17)
  %18 = load ptr, ptr %6, align 8, !tbaa !3
  %19 = call i32 @PyUnstable_TryIncRef(ptr noundef %18)
  %20 = icmp ne i32 %19, 0
  br i1 %20, label %24, label %21

21:                                               ; preds = %16
  %22 = load ptr, ptr @PyExc_AssertionError, align 8, !tbaa !3
  call void @PyErr_SetString(ptr noundef %22, ptr noundef @.str.26)
  %23 = load ptr, ptr %6, align 8, !tbaa !3
  call void @Py_DECREF(ptr noundef %23)
  store ptr null, ptr %3, align 8
  store i32 1, ptr %7, align 4
  br label %33

24:                                               ; preds = %16
  %25 = load ptr, ptr %6, align 8, !tbaa !3
  call void @Py_DECREF(ptr noundef %25)
  %26 = load ptr, ptr %6, align 8, !tbaa !3
  call void @Py_DECREF(ptr noundef %26)
  %27 = load i32, ptr @MyObject_dealloc_called, align 4, !tbaa !8
  %28 = icmp eq i32 %27, 1
  br i1 %28, label %29, label %30

29:                                               ; preds = %24
  br label %32

30:                                               ; preds = %24
  call void @__assert_fail(ptr noundef @.str.27, ptr noundef @.str.28, i32 noundef 184, ptr noundef @__PRETTY_FUNCTION__.test_py_try_inc_ref) #7
  unreachable

31:                                               ; No predecessors!
  br label %32

32:                                               ; preds = %31, %29
  store ptr @_Py_NoneStruct, ptr %3, align 8
  store i32 1, ptr %7, align 4
  br label %33

33:                                               ; preds = %32, %21, %15
  call void @llvm.lifetime.end.p0(i64 8, ptr %6) #6
  br label %34

34:                                               ; preds = %33, %10
  %35 = load ptr, ptr %3, align 8
  ret ptr %35
}