; Function Attrs: nounwind uwtable
define internal noundef ptr @test_py_try_inc_ref(ptr readnone captures(none) %0, ptr readnone captures(none) %1) #0 {
  %3 = tail call i32 @PyType_Ready(ptr noundef nonnull @MyType) #5
  %4 = icmp slt i32 %3, 0
  br i1 %4, label %Py_DECREF.exit, label %5

5:                                                ; preds = %2
  store i32 0, ptr @MyObject_dealloc_called, align 4, !tbaa !9
  %6 = tail call ptr @_PyObject_New(ptr noundef nonnull @MyType) #5
  %7 = icmp eq ptr %6, null
  br i1 %7, label %Py_DECREF.exit, label %8

8:                                                ; preds = %5
  tail call void @PyUnstable_EnableTryIncRef(ptr noundef nonnull %6) #5
  %9 = tail call i32 @PyUnstable_TryIncRef(ptr noundef nonnull %6) #5
  %.not = icmp eq i32 %9, 0
  br i1 %.not, label %10, label %17

10:                                               ; preds = %8
  %11 = load ptr, ptr @PyExc_AssertionError, align 8, !tbaa !3
  tail call void @PyErr_SetString(ptr noundef %11, ptr noundef nonnull @.str.26) #5
  %12 = load i32, ptr %6, align 8, !tbaa !8
  %.not.i = icmp sgt i32 %12, -1
  br i1 %.not.i, label %13, label %Py_DECREF.exit

13:                                               ; preds = %10
  %14 = add nsw i32 %12, -1
  store i32 %14, ptr %6, align 8, !tbaa !8
  %15 = icmp eq i32 %14, 0
  br i1 %15, label %16, label %Py_DECREF.exit

16:                                               ; preds = %13
  tail call void @_Py_Dealloc(ptr noundef nonnull %6) #5
  br label %Py_DECREF.exit

17:                                               ; preds = %8
  %18 = load i32, ptr %6, align 8, !tbaa !8
  %.not.i8 = icmp sgt i32 %18, -1
  br i1 %.not.i8, label %19, label %Py_DECREF.exit11

19:                                               ; preds = %17
  %20 = add nsw i32 %18, -1
  store i32 %20, ptr %6, align 8, !tbaa !8
  %21 = icmp eq i32 %20, 0
  br i1 %21, label %22, label %Py_DECREF.exit9

22:                                               ; preds = %19
  tail call void @_Py_Dealloc(ptr noundef nonnull %6) #5
  %.pre = load i32, ptr %6, align 8, !tbaa !8
  br label %Py_DECREF.exit9

Py_DECREF.exit9:                                  ; preds = %19, %22
  %23 = phi i32 [ %20, %19 ], [ %.pre, %22 ]
  %.not.i10 = icmp sgt i32 %23, -1
  br i1 %.not.i10, label %24, label %Py_DECREF.exit11

24:                                               ; preds = %Py_DECREF.exit9
  %25 = add nsw i32 %23, -1
  store i32 %25, ptr %6, align 8, !tbaa !8
  %26 = icmp eq i32 %25, 0
  br i1 %26, label %27, label %Py_DECREF.exit11

27:                                               ; preds = %24
  tail call void @_Py_Dealloc(ptr noundef nonnull %6) #5
  br label %Py_DECREF.exit11

Py_DECREF.exit11:                                 ; preds = %17, %Py_DECREF.exit9, %24, %27
  %28 = load i32, ptr @MyObject_dealloc_called, align 4, !tbaa !9
  %29 = icmp eq i32 %28, 1
  br i1 %29, label %Py_DECREF.exit, label %30

30:                                               ; preds = %Py_DECREF.exit11
  tail call void @__assert_fail(ptr noundef nonnull @.str.27, ptr noundef nonnull @.str.28, i32 noundef 184, ptr noundef nonnull @__PRETTY_FUNCTION__.test_py_try_inc_ref) #6
  unreachable

Py_DECREF.exit:                                   ; preds = %16, %13, %10, %5, %Py_DECREF.exit11, %2
  %.0 = phi ptr [ null, %2 ], [ null, %5 ], [ @_Py_NoneStruct, %Py_DECREF.exit11 ], [ null, %10 ], [ null, %13 ], [ null, %16 ]
  ret ptr %.0
}